target datalayout = "e-m:e-p270:32:32-p271:32:32-p272:64:64-i64:64-i128:128-f80:128-n8:16:32:64-S128"
target triple = "x86_64-pc-linux-gnu"

%struct.darktable_t = type { %struct.dt_codepath_t, i32, i32, ptr, ptr, ptr, ptr, ptr, ptr, ptr, ptr, ptr, ptr, ptr, ptr, ptr, ptr, ptr, ptr, ptr, ptr, ptr, ptr, ptr, ptr, ptr, ptr, ptr, ptr, ptr, [64 x %struct.dt_pthread_mutex_t], %struct.dt_pthread_mutex_t, %struct.dt_pthread_mutex_t, %struct.dt_pthread_mutex_t, %struct.dt_pthread_mutex_t, %struct.dt_pthread_mutex_t, ptr, ptr, ptr, ptr, ptr, ptr, ptr, ptr, ptr, ptr, ptr, ptr, ptr, %struct.dt_lua_state_t, ptr, double, ptr, i32, [47 x i32], i32, i32, ptr, ptr, %struct.dt_sys_resources_t, %struct.dt_backthumb_t, %struct.dt_gimp_t }
%struct.dt_codepath_t = type { i8, [3 x i8] }
%struct.dt_pthread_mutex_t = type { %union.pthread_mutex_t }
%union.pthread_mutex_t = type { %struct.__pthread_mutex_s }
%struct.__pthread_mutex_s = type { i32, i32, i32, i32, i32, i16, i16, %struct.__pthread_internal_list }
%struct.__pthread_internal_list = type { ptr, ptr }
%struct.dt_lua_state_t = type { i32 }
%struct.dt_sys_resources_t = type { i64, i64, ptr, ptr, i32 }
%struct.dt_backthumb_t = type { double, double, i32, i32, i32, i32 }
%struct.dt_gimp_t = type { i32, ptr, ptr, i32, i32 }
%struct.dt_lib_module_t = type { %struct.dt_action_t, ptr, ptr, ptr, ptr, ptr, ptr, ptr, ptr, ptr, ptr, ptr, ptr, ptr, ptr, ptr, ptr, ptr, ptr, ptr, ptr, ptr, ptr, ptr, ptr, ptr, ptr, ptr, ptr, ptr, ptr, [128 x i8], ptr, ptr, i32, ptr, ptr, ptr, i32 }
%struct.dt_action_t = type { i32, ptr, ptr, ptr, ptr, ptr }
%struct.dt_lib_tagging_t = type { [1024 x i8], ptr, ptr, ptr, ptr, ptr, ptr, ptr, ptr, ptr, ptr, ptr, ptr, ptr, ptr, ptr, ptr, ptr, ptr, ptr, ptr, ptr, i32, i32, i32, i32, i32, ptr, ptr, %struct.anon, i32 }
%struct.anon = type { ptr, ptr, ptr, i32, i32, i32, i32, i32 }
%struct.dt_gui_gtk_t = type { ptr, %struct.dt_gui_widgets_t, %struct.dt_gui_scrollbars_t, i32, ptr, i32, [39 x %struct._GdkRGBA], i32, i32, i32, i32, i32, double, double, double, double, ptr, double, double, double, double, i32, i32, [4096 x i8], i32, i32, i32, %struct.dt_pthread_mutex_t }
%struct.dt_gui_widgets_t = type { ptr, ptr, ptr, ptr, i32, i32, i32 }
%struct.dt_gui_scrollbars_t = type { ptr, ptr, i32 }
%struct._GdkRGBA = type { double, double, double, double }

@.str.13 = private unnamed_addr constant [16 x i8] c"key-press-event\00", align 1
@darktable = external global %struct.darktable_t, align 8
@.str.154 = private unnamed_addr constant [74 x i8] c"tag shortcut is not active with tag tree view. please switch to list view\00", align 1
@.str.155 = private unnamed_addr constant [15 x i8] c"match-selected\00", align 1
@.str.156 = private unnamed_addr constant [16 x i8] c"focus-out-event\00", align 1

; Function Attrs: inlinehint nounwind uwtable
define internal ptr @dt_action_lib(ptr noundef %0) #7 {
  %2 = alloca ptr, align 8
  store ptr %0, ptr %2, align 8, !tbaa !115
  br label %3

3:                                                ; preds = %13, %1
  %4 = load ptr, ptr %2, align 8, !tbaa !115
  %5 = icmp ne ptr %4, null
  br i1 %5, label %6, label %11

6:                                                ; preds = %3
  %7 = load ptr, ptr %2, align 8, !tbaa !115
  %8 = getelementptr inbounds nuw %struct.dt_action_t, ptr %7, i32 0, i32 0
  %9 = load i32, ptr %8, align 8, !tbaa !214
  %10 = icmp ne i32 %9, 3
  br label %11

11:                                               ; preds = %6, %3
  %12 = phi i1 [ false, %3 ], [ %10, %6 ]
  br i1 %12, label %13, label %17

13:                                               ; preds = %11
  %14 = load ptr, ptr %2, align 8, !tbaa !115
  %15 = getelementptr inbounds nuw %struct.dt_action_t, ptr %14, i32 0, i32 4
  %16 = load ptr, ptr %15, align 8, !tbaa !215
  store ptr %16, ptr %2, align 8, !tbaa !115
  br label %3

17:                                               ; preds = %11
  %18 = load ptr, ptr %2, align 8, !tbaa !115
  ret ptr %18
}

; Function Attrs: nounwind uwtable
define internal void @_lib_tagging_tag_show(ptr noundef %0) #0 {
  %2 = alloca ptr, align 8
  %3 = alloca ptr, align 8
  %4 = alloca ptr, align 8
  %5 = alloca i32, align 4
  %6 = alloca i32, align 4
  %7 = alloca i32, align 4
  %8 = alloca i32, align 4
  %9 = alloca i32, align 4
  %10 = alloca i32, align 4
  %11 = alloca i32, align 4
  %12 = alloca ptr, align 8
  %13 = alloca ptr, align 8
  %14 = alloca ptr, align 8
  %15 = alloca ptr, align 8
  store ptr %0, ptr %2, align 8, !tbaa !115
  call void @llvm.lifetime.start.p0(i64 8, ptr %3) #11
  %16 = load ptr, ptr %2, align 8, !tbaa !115
  %17 = call ptr @dt_action_lib(ptr noundef %16)
  store ptr %17, ptr %3, align 8, !tbaa !6
  call void @llvm.lifetime.start.p0(i64 8, ptr %4) #11
  %18 = load ptr, ptr %3, align 8, !tbaa !6
  %19 = getelementptr inbounds nuw %struct.dt_lib_module_t, ptr %18, i32 0, i32 30
  %20 = load ptr, ptr %19, align 8, !tbaa !11
  store ptr %20, ptr %4, align 8, !tbaa !19
  %21 = load ptr, ptr %4, align 8, !tbaa !19
  %22 = getelementptr inbounds nuw %struct.dt_lib_tagging_t, ptr %21, i32 0, i32 22
  %23 = load i32, ptr %22, align 8, !tbaa !38
  %24 = icmp ne i32 %23, 0
  br i1 %24, label %25, label %27

25:                                               ; preds = %1
  %26 = call ptr @dcgettext(ptr noundef null, ptr noundef @.str.154, i32 noundef 5) #11
  call void (ptr, ...) @dt_control_log(ptr noundef %26)
  store i32 1, ptr %5, align 4
  br label %152

27:                                               ; preds = %1
  %28 = call ptr @dt_act_on_get_images(i32 noundef 0, i32 noundef 1, i32 noundef 0)
  %29 = load ptr, ptr %4, align 8, !tbaa !19
  %30 = getelementptr inbounds nuw %struct.dt_lib_tagging_t, ptr %29, i32 0, i32 21
  store ptr %28, ptr %30, align 8, !tbaa !183
  call void @llvm.lifetime.start.p0(i64 4, ptr %6) #11
  call void @llvm.lifetime.start.p0(i64 4, ptr %7) #11
  call void @llvm.lifetime.start.p0(i64 4, ptr %8) #11
  call void @llvm.lifetime.start.p0(i64 4, ptr %9) #11
  call void @llvm.lifetime.start.p0(i64 4, ptr %10) #11
  call void @llvm.lifetime.start.p0(i64 4, ptr %11) #11
  call void @llvm.lifetime.start.p0(i64 8, ptr %12) #11
  %31 = load ptr, ptr getelementptr inbounds nuw (%struct.darktable_t, ptr @darktable, i32 0, i32 14), align 8, !tbaa !158
  %32 = getelementptr inbounds nuw %struct.dt_gui_gtk_t, ptr %31, i32 0, i32 0
  %33 = load ptr, ptr %32, align 8, !tbaa !165
  %34 = call ptr @dt_ui_main_window(ptr noundef %33)
  store ptr %34, ptr %12, align 8, !tbaa !108
  call void @llvm.lifetime.start.p0(i64 8, ptr %13) #11
  %35 = load ptr, ptr getelementptr inbounds nuw (%struct.darktable_t, ptr @darktable, i32 0, i32 14), align 8, !tbaa !158
  %36 = getelementptr inbounds nuw %struct.dt_gui_gtk_t, ptr %35, i32 0, i32 0
  %37 = load ptr, ptr %36, align 8, !tbaa !165
  %38 = call ptr @dt_ui_center(ptr noundef %37)
  store ptr %38, ptr %13, align 8, !tbaa !108
  %39 = load ptr, ptr %13, align 8, !tbaa !108
  %40 = call ptr @gtk_widget_get_window(ptr noundef %39)
  %41 = call i32 @gdk_window_get_origin(ptr noundef %40, ptr noundef %8, ptr noundef %9)
  %42 = load ptr, ptr %13, align 8, !tbaa !108
  %43 = call ptr @gtk_widget_get_window(ptr noundef %42)
  %44 = call i32 @gdk_window_get_width(ptr noundef %43)
  store i32 %44, ptr %10, align 4, !tbaa !31
  %45 = load ptr, ptr %13, align 8, !tbaa !108
  %46 = call ptr @gtk_widget_get_window(ptr noundef %45)
  %47 = call i32 @gdk_window_get_height(ptr noundef %46)
  store i32 %47, ptr %11, align 4, !tbaa !31
  %48 = load i32, ptr %8, align 4, !tbaa !31
  %49 = sitofp i32 %48 to double
  %50 = load i32, ptr %10, align 4, !tbaa !31
  %51 = sitofp i32 %50 to double
  %52 = load ptr, ptr getelementptr inbounds nuw (%struct.darktable_t, ptr @darktable, i32 0, i32 14), align 8, !tbaa !158
  %53 = getelementptr inbounds nuw %struct.dt_gui_gtk_t, ptr %52, i32 0, i32 18
  %54 = load double, ptr %53, align 8, !tbaa !184
  %55 = fmul reassoc nsz arcp contract afn double 1.500000e+02, %54
  %56 = fsub reassoc nsz arcp contract afn double %51, %55
  %57 = fmul reassoc nsz arcp contract afn double 5.000000e-01, %56
  %58 = fadd reassoc nsz arcp contract afn double %49, %57
  %59 = fptosi double %58 to i32
  store i32 %59, ptr %6, align 4, !tbaa !31
  %60 = load i32, ptr %9, align 4, !tbaa !31
  %61 = load i32, ptr %11, align 4, !tbaa !31
  %62 = add nsw i32 %60, %61
  %63 = sub nsw i32 %62, 50
  store i32 %63, ptr %7, align 4, !tbaa !31
  %64 = call ptr @gtk_window_new(i32 noundef 0)
  %65 = load ptr, ptr %4, align 8, !tbaa !19
  %66 = getelementptr inbounds nuw %struct.dt_lib_tagging_t, ptr %65, i32 0, i32 20
  store ptr %64, ptr %66, align 8, !tbaa !185
  %67 = load ptr, ptr %4, align 8, !tbaa !19
  %68 = getelementptr inbounds nuw %struct.dt_lib_tagging_t, ptr %67, i32 0, i32 20
  %69 = load ptr, ptr %68, align 8, !tbaa !185
  call void @gtk_widget_set_can_focus(ptr noundef %69, i32 noundef 1)
  %70 = load ptr, ptr %4, align 8, !tbaa !19
  %71 = getelementptr inbounds nuw %struct.dt_lib_tagging_t, ptr %70, i32 0, i32 20
  %72 = load ptr, ptr %71, align 8, !tbaa !185
  %73 = call i64 @gtk_window_get_type() #12
  %74 = call ptr @g_type_check_instance_cast(ptr noundef %72, i64 noundef %73)
  call void @gtk_window_set_decorated(ptr noundef %74, i32 noundef 0)
  %75 = load ptr, ptr %4, align 8, !tbaa !19
  %76 = getelementptr inbounds nuw %struct.dt_lib_tagging_t, ptr %75, i32 0, i32 20
  %77 = load ptr, ptr %76, align 8, !tbaa !185
  %78 = call i64 @gtk_window_get_type() #12
  %79 = call ptr @g_type_check_instance_cast(ptr noundef %77, i64 noundef %78)
  call void @gtk_window_set_type_hint(ptr noundef %79, i32 noundef 9)
  %80 = load ptr, ptr %4, align 8, !tbaa !19
  %81 = getelementptr inbounds nuw %struct.dt_lib_tagging_t, ptr %80, i32 0, i32 20
  %82 = load ptr, ptr %81, align 8, !tbaa !185
  %83 = call i64 @gtk_window_get_type() #12
  %84 = call ptr @g_type_check_instance_cast(ptr noundef %82, i64 noundef %83)
  %85 = load ptr, ptr %12, align 8, !tbaa !108
  %86 = call i64 @gtk_window_get_type() #12
  %87 = call ptr @g_type_check_instance_cast(ptr noundef %85, i64 noundef %86)
  call void @gtk_window_set_transient_for(ptr noundef %84, ptr noundef %87)
  %88 = load ptr, ptr %4, align 8, !tbaa !19
  %89 = getelementptr inbounds nuw %struct.dt_lib_tagging_t, ptr %88, i32 0, i32 20
  %90 = load ptr, ptr %89, align 8, !tbaa !185
  call void @gtk_widget_set_opacity(ptr noundef %90, double noundef 8.000000e-01)
  %91 = load ptr, ptr %4, align 8, !tbaa !19
  %92 = getelementptr inbounds nuw %struct.dt_lib_tagging_t, ptr %91, i32 0, i32 20
  %93 = load ptr, ptr %92, align 8, !tbaa !185
  %94 = call i64 @gtk_window_get_type() #12
  %95 = call ptr @g_type_check_instance_cast(ptr noundef %93, i64 noundef %94)
  %96 = load i32, ptr %6, align 4, !tbaa !31
  %97 = load i32, ptr %7, align 4, !tbaa !31
  call void @gtk_window_move(ptr noundef %95, i32 noundef %96, i32 noundef %97)
  call void @llvm.lifetime.start.p0(i64 8, ptr %14) #11
  %98 = call ptr @gtk_entry_new()
  store ptr %98, ptr %14, align 8, !tbaa !108
  %99 = load ptr, ptr %14, align 8, !tbaa !108
  %100 = load ptr, ptr getelementptr inbounds nuw (%struct.darktable_t, ptr @darktable, i32 0, i32 14), align 8, !tbaa !158
  %101 = getelementptr inbounds nuw %struct.dt_gui_gtk_t, ptr %100, i32 0, i32 18
  %102 = load double, ptr %101, align 8, !tbaa !184
  %103 = fmul reassoc nsz arcp contract afn double 1.500000e+02, %102
  %104 = fptosi double %103 to i32
  call void @gtk_widget_set_size_request(ptr noundef %99, i32 noundef %104, i32 noundef -1)
  %105 = load ptr, ptr %14, align 8, !tbaa !108
  call void @gtk_widget_add_events(ptr noundef %105, i32 noundef 16384)
  call void @llvm.lifetime.start.p0(i64 8, ptr %15) #11
  %106 = call ptr @gtk_entry_completion_new()
  store ptr %106, ptr %15, align 8, !tbaa !186
  %107 = load ptr, ptr %15, align 8, !tbaa !186
  %108 = load ptr, ptr %4, align 8, !tbaa !19
  %109 = getelementptr inbounds nuw %struct.dt_lib_tagging_t, ptr %108, i32 0, i32 4
  %110 = load ptr, ptr %109, align 8, !tbaa !40
  %111 = call i64 @gtk_tree_view_get_type() #12
  %112 = call ptr @g_type_check_instance_cast(ptr noundef %110, i64 noundef %111)
  %113 = call ptr @gtk_tree_view_get_model(ptr noundef %112)
  call void @gtk_entry_completion_set_model(ptr noundef %107, ptr noundef %113)
  %114 = load ptr, ptr %15, align 8, !tbaa !186
  call void @gtk_entry_completion_set_text_column(ptr noundef %114, i32 noundef 2)
  %115 = load ptr, ptr %15, align 8, !tbaa !186
  call void @gtk_entry_completion_set_inline_completion(ptr noundef %115, i32 noundef 1)
  %116 = load ptr, ptr %15, align 8, !tbaa !186
  call void @gtk_entry_completion_set_popup_set_width(ptr noundef %116, i32 noundef 0)
  %117 = load ptr, ptr %15, align 8, !tbaa !186
  %118 = call ptr @g_type_check_instance_cast(ptr noundef %117, i64 noundef 80)
  %119 = load ptr, ptr %3, align 8, !tbaa !6
  %120 = call i64 @g_signal_connect_data(ptr noundef %118, ptr noundef @.str.155, ptr noundef @_match_selected_func, ptr noundef %119, ptr noundef null, i32 noundef 0)
  %121 = load ptr, ptr %15, align 8, !tbaa !186
  call void @gtk_entry_completion_set_match_func(ptr noundef %121, ptr noundef @_completion_match_func, ptr noundef null, ptr noundef null)
  %122 = load ptr, ptr %14, align 8, !tbaa !108
  %123 = call i64 @gtk_entry_get_type() #12
  %124 = call ptr @g_type_check_instance_cast(ptr noundef %122, i64 noundef %123)
  %125 = load ptr, ptr %15, align 8, !tbaa !186
  call void @gtk_entry_set_completion(ptr noundef %124, ptr noundef %125)
  %126 = load ptr, ptr %14, align 8, !tbaa !108
  %127 = call i64 @gtk_editable_get_type() #12
  %128 = call ptr @g_type_check_instance_cast(ptr noundef %126, i64 noundef %127)
  call void @gtk_editable_select_region(ptr noundef %128, i32 noundef 0, i32 noundef -1)
  %129 = load ptr, ptr %4, align 8, !tbaa !19
  %130 = getelementptr inbounds nuw %struct.dt_lib_tagging_t, ptr %129, i32 0, i32 20
  %131 = load ptr, ptr %130, align 8, !tbaa !185
  %132 = call i64 @gtk_container_get_type() #12
  %133 = call ptr @g_type_check_instance_cast(ptr noundef %131, i64 noundef %132)
  %134 = load ptr, ptr %14, align 8, !tbaa !108
  call void @gtk_container_add(ptr noundef %133, ptr noundef %134)
  %135 = load ptr, ptr %14, align 8, !tbaa !108
  %136 = load ptr, ptr %4, align 8, !tbaa !19
  %137 = getelementptr inbounds nuw %struct.dt_lib_tagging_t, ptr %136, i32 0, i32 20
  %138 = load ptr, ptr %137, align 8, !tbaa !185
  %139 = call i64 @g_signal_connect_data(ptr noundef %135, ptr noundef @.str.156, ptr noundef @_lib_tagging_tag_destroy, ptr noundef %138, ptr noundef null, i32 noundef 0)
  %140 = load ptr, ptr %14, align 8, !tbaa !108
  %141 = load ptr, ptr %3, align 8, !tbaa !6
  %142 = call i64 @g_signal_connect_data(ptr noundef %140, ptr noundef @.str.13, ptr noundef @_lib_tagging_tag_key_press, ptr noundef %141, ptr noundef null, i32 noundef 0)
  %143 = load ptr, ptr %4, align 8, !tbaa !19
  %144 = getelementptr inbounds nuw %struct.dt_lib_tagging_t, ptr %143, i32 0, i32 20
  %145 = load ptr, ptr %144, align 8, !tbaa !185
  call void @gtk_widget_show_all(ptr noundef %145)
  %146 = load ptr, ptr %14, align 8, !tbaa !108
  call void @gtk_widget_grab_focus(ptr noundef %146)
  %147 = load ptr, ptr %4, align 8, !tbaa !19
  %148 = getelementptr inbounds nuw %struct.dt_lib_tagging_t, ptr %147, i32 0, i32 20
  %149 = load ptr, ptr %148, align 8, !tbaa !185
  %150 = call i64 @gtk_window_get_type() #12
  %151 = call ptr @g_type_check_instance_cast(ptr noundef %149, i64 noundef %150)
  call void @gtk_window_present(ptr noundef %151)
  call void @llvm.lifetime.end.p0(i64 8, ptr %15) #11
  call void @llvm.lifetime.end.p0(i64 8, ptr %14) #11
  call void @llvm.lifetime.end.p0(i64 8, ptr %13) #11
  call void @llvm.lifetime.end.p0(i64 8, ptr %12) #11
  call void @llvm.lifetime.end.p0(i64 4, ptr %11) #11
  call void @llvm.lifetime.end.p0(i64 4, ptr %10) #11
  call void @llvm.lifetime.end.p0(i64 4, ptr %9) #11
  call void @llvm.lifetime.end.p0(i64 4, ptr %8) #11
  call void @llvm.lifetime.end.p0(i64 4, ptr %7) #11
  call void @llvm.lifetime.end.p0(i64 4, ptr %6) #11
  store i32 0, ptr %5, align 4
  br label %152

152:                                              ; preds = %27, %25
  call void @llvm.lifetime.end.p0(i64 8, ptr %4) #11
  call void @llvm.lifetime.end.p0(i64 8, ptr %3) #11
  %153 = load i32, ptr %5, align 4
  switch i32 %153, label %155 [
    i32 0, label %154
    i32 1, label %154
  ]

154:                                              ; preds = %152, %152
  ret void

155:                                              ; preds = %152
  unreachable
}