; Function Attrs: nounwind uwtable
define internal void @_lib_tagging_tag_show(ptr noundef %0) #1 {
  %2 = alloca i32, align 4
  %3 = alloca i32, align 4
  %.not5.i = icmp eq ptr %0, null
  br i1 %.not5.i, label %dt_action_lib.exit, label %.lr.ph.i

.lr.ph.i:                                         ; preds = %1, %5
  %.06.i = phi ptr [ %7, %5 ], [ %0, %1 ]
  %4 = load i32, ptr %.06.i, align 8, !tbaa !146
  %.not4.i = icmp eq i32 %4, 3
  br i1 %.not4.i, label %dt_action_lib.exit, label %5

5:                                                ; preds = %.lr.ph.i
  %6 = getelementptr inbounds nuw i8, ptr %.06.i, i64 32
  %7 = load ptr, ptr %6, align 8, !tbaa !147
  %.not.i = icmp eq ptr %7, null
  br i1 %.not.i, label %dt_action_lib.exit, label %.lr.ph.i

dt_action_lib.exit:                               ; preds = %.lr.ph.i, %5, %1
  %.0.lcssa.i = phi ptr [ null, %1 ], [ %.06.i, %.lr.ph.i ], [ null, %5 ]
  %8 = getelementptr inbounds nuw i8, ptr %.0.lcssa.i, i64 280
  %9 = load ptr, ptr %8, align 8, !tbaa !6
  %10 = getelementptr inbounds nuw i8, ptr %9, i64 1192
  %11 = load i32, ptr %10, align 8, !tbaa !36
  %.not = icmp eq i32 %11, 0
  br i1 %.not, label %14, label %12

12:                                               ; preds = %dt_action_lib.exit
  %13 = tail call ptr @dcgettext(ptr noundef null, ptr noundef nonnull @.str.154, i32 noundef 5) #16
  tail call void (ptr, ...) @dt_control_log(ptr noundef %13) #16
  br label %83

14:                                               ; preds = %dt_action_lib.exit
  %15 = tail call ptr @dt_act_on_get_images(i32 noundef 0, i32 noundef 1, i32 noundef 0) #16
  %16 = getelementptr inbounds nuw i8, ptr %9, i64 1184
  store ptr %15, ptr %16, align 8, !tbaa !148
  call void @llvm.lifetime.start.p0(i64 4, ptr nonnull %2) #16
  call void @llvm.lifetime.start.p0(i64 4, ptr nonnull %3) #16
  %17 = load ptr, ptr getelementptr inbounds nuw (i8, ptr @darktable, i64 104), align 8, !tbaa !125
  %18 = load ptr, ptr %17, align 8, !tbaa !131
  %19 = tail call ptr @dt_ui_main_window(ptr noundef %18) #16
  %20 = load ptr, ptr getelementptr inbounds nuw (i8, ptr @darktable, i64 104), align 8, !tbaa !125
  %21 = load ptr, ptr %20, align 8, !tbaa !131
  %22 = tail call ptr @dt_ui_center(ptr noundef %21) #16
  %23 = tail call ptr @gtk_widget_get_window(ptr noundef %22) #16
  %24 = call i32 @gdk_window_get_origin(ptr noundef %23, ptr noundef nonnull %2, ptr noundef nonnull %3) #16
  %25 = call ptr @gtk_widget_get_window(ptr noundef %22) #16
  %26 = call i32 @gdk_window_get_width(ptr noundef %25) #16
  %27 = call ptr @gtk_widget_get_window(ptr noundef %22) #16
  %28 = call i32 @gdk_window_get_height(ptr noundef %27) #16
  %29 = load i32, ptr %2, align 4, !tbaa !46
  %30 = sitofp i32 %29 to double
  %31 = sitofp i32 %26 to double
  %32 = load ptr, ptr getelementptr inbounds nuw (i8, ptr @darktable, i64 104), align 8, !tbaa !125
  %33 = getelementptr inbounds nuw i8, ptr %32, i64 1424
  %34 = load double, ptr %33, align 8, !tbaa !149
  %35 = fmul reassoc nsz arcp contract afn double %34, 1.500000e+02
  %36 = fsub reassoc nsz arcp contract afn double %31, %35
  %37 = fmul reassoc nsz arcp contract afn double %36, 5.000000e-01
  %38 = fadd reassoc nsz arcp contract afn double %37, %30
  %39 = fptosi double %38 to i32
  %40 = load i32, ptr %3, align 4, !tbaa !46
  %41 = add i32 %28, -50
  %42 = add i32 %41, %40
  %43 = call ptr @gtk_window_new(i32 noundef 0) #16
  %44 = getelementptr inbounds nuw i8, ptr %9, i64 1176
  store ptr %43, ptr %44, align 8, !tbaa !150
  call void @gtk_widget_set_can_focus(ptr noundef %43, i32 noundef 1) #16
  %45 = load ptr, ptr %44, align 8, !tbaa !150
  %46 = tail call i64 @gtk_window_get_type() #17
  %47 = call ptr @g_type_check_instance_cast(ptr noundef %45, i64 noundef %46) #16
  call void @gtk_window_set_decorated(ptr noundef %47, i32 noundef 0) #16
  %48 = load ptr, ptr %44, align 8, !tbaa !150
  %49 = call ptr @g_type_check_instance_cast(ptr noundef %48, i64 noundef %46) #16
  call void @gtk_window_set_type_hint(ptr noundef %49, i32 noundef 9) #16
  %50 = load ptr, ptr %44, align 8, !tbaa !150
  %51 = call ptr @g_type_check_instance_cast(ptr noundef %50, i64 noundef %46) #16
  %52 = call ptr @g_type_check_instance_cast(ptr noundef %19, i64 noundef %46) #16
  call void @gtk_window_set_transient_for(ptr noundef %51, ptr noundef %52) #16
  %53 = load ptr, ptr %44, align 8, !tbaa !150
  call void @gtk_widget_set_opacity(ptr noundef %53, double noundef 8.000000e-01) #16
  %54 = load ptr, ptr %44, align 8, !tbaa !150
  %55 = call ptr @g_type_check_instance_cast(ptr noundef %54, i64 noundef %46) #16
  call void @gtk_window_move(ptr noundef %55, i32 noundef %39, i32 noundef %42) #16
  %56 = call ptr @gtk_entry_new() #16
  %57 = load ptr, ptr getelementptr inbounds nuw (i8, ptr @darktable, i64 104), align 8, !tbaa !125
  %58 = getelementptr inbounds nuw i8, ptr %57, i64 1424
  %59 = load double, ptr %58, align 8, !tbaa !149
  %60 = fmul reassoc nsz arcp contract afn double %59, 1.500000e+02
  %61 = fptosi double %60 to i32
  call void @gtk_widget_set_size_request(ptr noundef %56, i32 noundef %61, i32 noundef -1) #16
  call void @gtk_widget_add_events(ptr noundef %56, i32 noundef 16384) #16
  %62 = call ptr @gtk_entry_completion_new() #16
  %63 = getelementptr inbounds nuw i8, ptr %9, i64 1048
  %64 = load ptr, ptr %63, align 8, !tbaa !27
  %65 = tail call i64 @gtk_tree_view_get_type() #17
  %66 = call ptr @g_type_check_instance_cast(ptr noundef %64, i64 noundef %65) #16
  %67 = call ptr @gtk_tree_view_get_model(ptr noundef %66) #16
  call void @gtk_entry_completion_set_model(ptr noundef %62, ptr noundef %67) #16
  call void @gtk_entry_completion_set_text_column(ptr noundef %62, i32 noundef 2) #16
  call void @gtk_entry_completion_set_inline_completion(ptr noundef %62, i32 noundef 1) #16
  call void @gtk_entry_completion_set_popup_set_width(ptr noundef %62, i32 noundef 0) #16
  %68 = call ptr @g_type_check_instance_cast(ptr noundef %62, i64 noundef 80) #16
  %69 = call i64 @g_signal_connect_data(ptr noundef %68, ptr noundef nonnull @.str.155, ptr noundef nonnull @_match_selected_func, ptr noundef nonnull %.0.lcssa.i, ptr noundef null, i32 noundef 0) #16
  call void @gtk_entry_completion_set_match_func(ptr noundef %62, ptr noundef nonnull @_completion_match_func, ptr noundef null, ptr noundef null) #16
  %70 = tail call i64 @gtk_entry_get_type() #17
  %71 = call ptr @g_type_check_instance_cast(ptr noundef %56, i64 noundef %70) #16
  call void @gtk_entry_set_completion(ptr noundef %71, ptr noundef %62) #16
  %72 = tail call i64 @gtk_editable_get_type() #17
  %73 = call ptr @g_type_check_instance_cast(ptr noundef %56, i64 noundef %72) #16
  call void @gtk_editable_select_region(ptr noundef %73, i32 noundef 0, i32 noundef -1) #16
  %74 = load ptr, ptr %44, align 8, !tbaa !150
  %75 = tail call i64 @gtk_container_get_type() #17
  %76 = call ptr @g_type_check_instance_cast(ptr noundef %74, i64 noundef %75) #16
  call void @gtk_container_add(ptr noundef %76, ptr noundef %56) #16
  %77 = load ptr, ptr %44, align 8, !tbaa !150
  %78 = call i64 @g_signal_connect_data(ptr noundef %56, ptr noundef nonnull @.str.156, ptr noundef nonnull @_lib_tagging_tag_destroy, ptr noundef %77, ptr noundef null, i32 noundef 0) #16
  %79 = call i64 @g_signal_connect_data(ptr noundef %56, ptr noundef nonnull @.str.13, ptr noundef nonnull @_lib_tagging_tag_key_press, ptr noundef nonnull %.0.lcssa.i, ptr noundef null, i32 noundef 0) #16
  %80 = load ptr, ptr %44, align 8, !tbaa !150
  call void @gtk_widget_show_all(ptr noundef %80) #16
  call void @gtk_widget_grab_focus(ptr noundef %56) #16
  %81 = load ptr, ptr %44, align 8, !tbaa !150
  %82 = call ptr @g_type_check_instance_cast(ptr noundef %81, i64 noundef %46) #16
  call void @gtk_window_present(ptr noundef %82) #16
  call void @llvm.lifetime.end.p0(i64 4, ptr nonnull %3) #16
  call void @llvm.lifetime.end.p0(i64 4, ptr nonnull %2) #16
  br label %83

83:                                               ; preds = %14, %12
  ret void
}